target datalayout = "e-m:e-p270:32:32-p271:32:32-p272:64:64-i64:64-i128:128-f80:128-n8:16:32:64-S128"
target triple = "x86_64-pc-linux-gnu"

%struct._asn1_ctx_t = type { i32, i32, i8, ptr, ptr, ptr, ptr, ptr, %struct.anon, %struct.anon.2, %struct.anon.3, ptr }
%struct.anon = type { i32, i8, i8, i8, ptr, ptr, i32, i32, ptr, ptr, ptr, %union.anon }
%union.anon = type { %struct.anon.0 }
%struct.anon.0 = type { ptr }
%struct.anon.2 = type { ptr, ptr, ptr }
%struct.anon.3 = type { i32, i8, ptr, i32, i32, ptr, ptr, ptr, %union.anon.4 }
%union.anon.4 = type { %struct.anon.5 }
%struct.anon.5 = type { ptr }
%struct._packet_info = type { ptr, ptr, i32, i32, %struct.nstime_t, %struct.nstime_t, %struct.nstime_t, i8, ptr, ptr, ptr, ptr, %struct._address, %struct._address, %struct._address, %struct._address, %struct._address, %struct._address, i32, ptr, i8, [3 x i8], %struct.anon.7, i32, i32, i32, i32, ptr, i8, ptr, ptr, i16, i16, i32, i32, i16, i32, i32, ptr, ptr, ptr, i8, i8, i16, i16, i16, i32, i16, i16, ptr, ptr, ptr, ptr, ptr, i32, i32 }
%struct.nstime_t = type { i64, i32 }
%struct._address = type { i32, i32, ptr, ptr }
%struct.anon.7 = type { i8, [3 x i8] }
%struct.ulp_private_data_t = type { i8, i8 }

@.str.1734 = private unnamed_addr constant [3 x i8] c"wk\00", align 1
@.str.1735 = private unnamed_addr constant [2 x i8] c"d\00", align 1

; Function Attrs: null_pointer_is_valid sspstrong uwtable
define internal ptr @ulp_get_private_data(ptr noundef %0) #0 {
  %2 = alloca ptr, align 8
  store ptr %0, ptr %2, align 8
  %3 = load ptr, ptr %2, align 8
  %4 = getelementptr inbounds nuw %struct._asn1_ctx_t, ptr %3, i32 0, i32 7
  %5 = load ptr, ptr %4, align 8
  %6 = icmp eq ptr %5, null
  br i1 %6, label %7, label %16

7:                                                ; preds = %1
  %8 = load ptr, ptr %2, align 8
  %9 = getelementptr inbounds nuw %struct._asn1_ctx_t, ptr %8, i32 0, i32 3
  %10 = load ptr, ptr %9, align 8
  %11 = getelementptr inbounds nuw %struct._packet_info, ptr %10, i32 0, i32 51
  %12 = load ptr, ptr %11, align 8
  %13 = call noalias ptr @wmem_alloc0(ptr noundef %12, i64 noundef 2) #7
  %14 = load ptr, ptr %2, align 8
  %15 = getelementptr inbounds nuw %struct._asn1_ctx_t, ptr %14, i32 0, i32 7
  store ptr %13, ptr %15, align 8
  br label %16

16:                                               ; preds = %7, %1
  %17 = load ptr, ptr %2, align 8
  %18 = getelementptr inbounds nuw %struct._asn1_ctx_t, ptr %17, i32 0, i32 7
  %19 = load ptr, ptr %18, align 8
  ret ptr %19
}

; Function Attrs: null_pointer_is_valid sspstrong uwtable
define internal i32 @dissect_ulp_T_ganssWeek(ptr noundef %0, i32 noundef %1, ptr noundef %2, ptr noundef %3, i32 noundef %4) #0 {
  %6 = alloca ptr, align 8
  %7 = alloca i32, align 4
  %8 = alloca ptr, align 8
  %9 = alloca ptr, align 8
  %10 = alloca i32, align 4
  %11 = alloca ptr, align 8
  store ptr %0, ptr %6, align 8
  store i32 %1, ptr %7, align 4
  store ptr %2, ptr %8, align 8
  store ptr %3, ptr %9, align 8
  store i32 %4, ptr %10, align 4
  call void @llvm.lifetime.start.p0(i64 8, ptr %11) #6
  %12 = load ptr, ptr %8, align 8
  %13 = call ptr @ulp_get_private_data(ptr noundef %12)
  store ptr %13, ptr %11, align 8
  %14 = load ptr, ptr %6, align 8
  %15 = load i32, ptr %7, align 4
  %16 = load ptr, ptr %8, align 8
  %17 = load ptr, ptr %9, align 8
  %18 = load i32, ptr %10, align 4
  %19 = call i32 @dissect_per_constrained_integer(ptr noundef %14, i32 noundef %15, ptr noundef %16, ptr noundef %17, i32 noundef %18, i32 noundef 0, i32 noundef 4095, ptr noundef null, i1 noundef zeroext false)
  store i32 %19, ptr %7, align 4
  %20 = load ptr, ptr %11, align 8
  %21 = getelementptr inbounds nuw %struct.ulp_private_data_t, ptr %20, i32 0, i32 1
  %22 = load i8, ptr %21, align 1
  %23 = zext i8 %22 to i32
  %24 = icmp ne i32 %23, 4
  br i1 %24, label %25, label %29

25:                                               ; preds = %5
  %26 = load ptr, ptr %8, align 8
  %27 = getelementptr inbounds nuw %struct._asn1_ctx_t, ptr %26, i32 0, i32 4
  %28 = load ptr, ptr %27, align 8
  call void (ptr, ptr, ...) @proto_item_append_text(ptr noundef %28, ptr noundef @.str.1734)
  br label %33

29:                                               ; preds = %5
  %30 = load ptr, ptr %8, align 8
  %31 = getelementptr inbounds nuw %struct._asn1_ctx_t, ptr %30, i32 0, i32 4
  %32 = load ptr, ptr %31, align 8
  call void (ptr, ptr, ...) @proto_item_append_text(ptr noundef %32, ptr noundef @.str.1735)
  br label %33

33:                                               ; preds = %29, %25
  %34 = load i32, ptr %7, align 4
  call void @llvm.lifetime.end.p0(i64 8, ptr %11) #6
  ret i32 %34
}