; Function Attrs: null_pointer_is_valid sspstrong uwtable
define internal i32 @dissect_ulp_T_ganssWeek(ptr noundef %0, i32 noundef %1, ptr noundef %2, ptr noundef %3, i32 noundef %4) #0 {
  %6 = getelementptr inbounds nuw i8, ptr %2, i64 48
  %7 = load ptr, ptr %6, align 8
  %8 = icmp eq ptr %7, null
  br i1 %8, label %9, label %ulp_get_private_data.exit

9:                                                ; preds = %5
  %10 = getelementptr inbounds nuw i8, ptr %2, i64 16
  %11 = load ptr, ptr %10, align 8
  %12 = getelementptr inbounds nuw i8, ptr %11, i64 408
  %13 = load ptr, ptr %12, align 8
  %14 = tail call noalias dereferenceable_or_null(2) ptr @wmem_alloc0(ptr noundef %13, i64 noundef 2) #9
  store ptr %14, ptr %6, align 8
  br label %ulp_get_private_data.exit

ulp_get_private_data.exit:                        ; preds = %5, %9
  %15 = phi ptr [ %14, %9 ], [ %7, %5 ]
  %16 = tail call i32 @dissect_per_constrained_integer(ptr noundef %0, i32 noundef %1, ptr noundef %2, ptr noundef %3, i32 noundef %4, i32 noundef 0, i32 noundef 4095, ptr noundef null, i1 noundef zeroext false)
  %17 = getelementptr inbounds nuw i8, ptr %15, i64 1
  %18 = load i8, ptr %17, align 1
  %.not = icmp eq i8 %18, 4
  %19 = getelementptr inbounds nuw i8, ptr %2, i64 24
  %20 = load ptr, ptr %19, align 8
  %.str.1735..str.1734 = select i1 %.not, ptr @.str.1735, ptr @.str.1734
  tail call void (ptr, ptr, ...) @proto_item_append_text(ptr noundef %20, ptr noundef nonnull %.str.1735..str.1734)
  ret i32 %16
}